target datalayout = "e-m:e-p270:32:32-p271:32:32-p272:64:64-i64:64-i128:128-f80:128-n8:16:32:64-S128"
target triple = "x86_64-pc-linux-gnu"

; Function Attrs: mustprogress uwtable
define hidden noundef i32 @_ZN4cvc58internal6theory5arith9joinKindsENS0_4kind6Kind_tES4_(i32 noundef %0, i32 noundef %1) #4 {
  %3 = alloca i32, align 4
  %4 = alloca i32, align 4
  %5 = alloca i32, align 4
  store i32 %0, ptr %4, align 4, !tbaa !3
  store i32 %1, ptr %5, align 4, !tbaa !3
  %6 = load i32, ptr %5, align 4, !tbaa !3
  %7 = load i32, ptr %4, align 4, !tbaa !3
  %8 = icmp slt i32 %6, %7
  br i1 %8, label %9, label %13

9:                                                ; preds = %2
  %10 = load i32, ptr %5, align 4, !tbaa !3
  %11 = load i32, ptr %4, align 4, !tbaa !3
  %12 = call noundef i32 @_ZN4cvc58internal6theory5arith9joinKindsENS0_4kind6Kind_tES4_(i32 noundef %10, i32 noundef %11)
  store i32 %12, ptr %3, align 4
  br label %62

13:                                               ; preds = %2
  %14 = load i32, ptr %4, align 4, !tbaa !3
  %15 = load i32, ptr %5, align 4, !tbaa !3
  %16 = icmp eq i32 %14, %15
  br i1 %16, label %17, label %19

17:                                               ; preds = %13
  %18 = load i32, ptr %4, align 4, !tbaa !3
  store i32 %18, ptr %3, align 4
  br label %62

19:                                               ; preds = %13
  br label %20

20:                                               ; preds = %19
  %21 = load i32, ptr %4, align 4, !tbaa !3
  %22 = icmp eq i32 %21, 5
  br i1 %22, label %23, label %32

23:                                               ; preds = %20
  %24 = load i32, ptr %5, align 4, !tbaa !3
  %25 = icmp eq i32 %24, 76
  br i1 %25, label %29, label %26

26:                                               ; preds = %23
  %27 = load i32, ptr %5, align 4, !tbaa !3
  %28 = icmp eq i32 %27, 78
  br i1 %28, label %29, label %31

29:                                               ; preds = %26, %23
  %30 = load i32, ptr %4, align 4, !tbaa !3
  store i32 %30, ptr %3, align 4
  br label %62

31:                                               ; preds = %26
  br label %61

32:                                               ; preds = %20
  %33 = load i32, ptr %4, align 4, !tbaa !3
  %34 = icmp eq i32 %33, 75
  br i1 %34, label %35, label %41

35:                                               ; preds = %32
  %36 = load i32, ptr %5, align 4, !tbaa !3
  %37 = icmp eq i32 %36, 76
  br i1 %37, label %38, label %40

38:                                               ; preds = %35
  %39 = load i32, ptr %4, align 4, !tbaa !3
  store i32 %39, ptr %3, align 4
  br label %62

40:                                               ; preds = %35
  br label %60

41:                                               ; preds = %32
  %42 = load i32, ptr %4, align 4, !tbaa !3
  %43 = icmp eq i32 %42, 76
  br i1 %43, label %44, label %49

44:                                               ; preds = %41
  %45 = load i32, ptr %5, align 4, !tbaa !3
  %46 = icmp eq i32 %45, 78
  br i1 %46, label %47, label %48

47:                                               ; preds = %44
  store i32 5, ptr %3, align 4
  br label %62

48:                                               ; preds = %44
  br label %59

49:                                               ; preds = %41
  %50 = load i32, ptr %4, align 4, !tbaa !3
  %51 = icmp eq i32 %50, 77
  br i1 %51, label %52, label %58

52:                                               ; preds = %49
  %53 = load i32, ptr %5, align 4, !tbaa !3
  %54 = icmp eq i32 %53, 78
  br i1 %54, label %55, label %57

55:                                               ; preds = %52
  %56 = load i32, ptr %4, align 4, !tbaa !3
  store i32 %56, ptr %3, align 4
  br label %62

57:                                               ; preds = %52
  br label %58

58:                                               ; preds = %57, %49
  br label %59

59:                                               ; preds = %58, %48
  br label %60

60:                                               ; preds = %59, %40
  br label %61

61:                                               ; preds = %60, %31
  store i32 -1, ptr %3, align 4
  br label %62

62:                                               ; preds = %61, %55, %47, %38, %29, %17, %9
  %63 = load i32, ptr %3, align 4
  ret i32 %63
}