; Function Attrs: mustprogress nofree norecurse nosync nounwind willreturn memory(none) uwtable
define hidden noundef i32 @_ZN4cvc58internal6theory5arith9joinKindsENS0_4kind6Kind_tES4_(i32 noundef %0, i32 noundef %1) local_unnamed_addr #3 {
  br label %tailrecurse

tailrecurse:                                      ; preds = %tailrecurse, %2
  %.tr = phi i32 [ %0, %2 ], [ %.tr26, %tailrecurse ]
  %.tr26 = phi i32 [ %1, %2 ], [ %.tr, %tailrecurse ]
  %3 = icmp slt i32 %.tr26, %.tr
  br i1 %3, label %tailrecurse, label %4

4:                                                ; preds = %tailrecurse
  %5 = icmp eq i32 %.tr, %.tr26
  br i1 %5, label %17, label %6

6:                                                ; preds = %4
  switch i32 %.tr, label %13 [
    i32 5, label %7
    i32 75, label %9
    i32 76, label %11
  ]

7:                                                ; preds = %6
  %8 = and i32 %.tr26, -3
  %or.cond = icmp eq i32 %8, 76
  br i1 %or.cond, label %17, label %16

9:                                                ; preds = %6
  %10 = icmp eq i32 %.tr26, 76
  br i1 %10, label %17, label %16

11:                                               ; preds = %6
  %12 = icmp eq i32 %.tr26, 78
  br i1 %12, label %17, label %16

13:                                               ; preds = %6
  %14 = icmp eq i32 %.tr, 77
  %15 = icmp eq i32 %.tr26, 78
  %or.cond3 = and i1 %14, %15
  br i1 %or.cond3, label %17, label %16

16:                                               ; preds = %9, %13, %11, %7
  br label %17

17:                                               ; preds = %13, %11, %9, %7, %4, %16
  %.0 = phi i32 [ -1, %16 ], [ %.tr, %4 ], [ 5, %7 ], [ 75, %9 ], [ 5, %11 ], [ 77, %13 ]
  ret i32 %.0
}